; Function Attrs: nounwind uwtable
define ptr @l_Lean_Meta_Grind_Arith_Cutsat_resolveConflict___lambda__1___boxed(ptr noundef %0, ptr noundef %1, ptr noundef %2, ptr noundef %3, ptr noundef %4, ptr noundef %5, ptr noundef %6, ptr noundef %7, ptr noundef %8, ptr noundef %9, ptr noundef %10, ptr noundef %11, ptr noundef %12) local_unnamed_addr #1 {
  %14 = ptrtoint ptr %2 to i64
  %15 = and i64 %14, 1
  %.not = icmp eq i64 %15, 0
  br i1 %.not, label %16, label %lean_dec.exit18

16:                                               ; preds = %13
  %17 = load i32, ptr %2, align 4, !tbaa !6
  %18 = icmp sgt i32 %17, 1
  br i1 %18, label %19, label %21, !prof !5

19:                                               ; preds = %16
  %20 = add nsw i32 %17, -1
  store i32 %20, ptr %2, align 4, !tbaa !6
  br label %lean_dec.exit18

21:                                               ; preds = %16
  %.not.i = icmp eq i32 %17, 0
  br i1 %.not.i, label %lean_dec.exit18, label %22

22:                                               ; preds = %21
  tail call void @lean_dec_ref_cold(ptr noundef nonnull %2) #6
  br label %lean_dec.exit18

lean_dec.exit18:                                  ; preds = %22, %21, %19, %13
  %23 = tail call ptr @l_Lean_Meta_Grind_Arith_Cutsat_resolveConflict___lambda__1(ptr noundef %0, ptr poison, i8 zeroext poison, ptr poison, ptr noundef %4, ptr noundef %5, ptr noundef %6, ptr noundef %7, ptr noundef %8, ptr noundef %9, ptr noundef %10, ptr noundef %11, ptr noundef %12)
  %24 = ptrtoint ptr %3 to i64
  %25 = and i64 %24, 1
  %.not23 = icmp eq i64 %25, 0
  br i1 %.not23, label %26, label %lean_dec.exit17

26:                                               ; preds = %lean_dec.exit18
  %27 = load i32, ptr %3, align 4, !tbaa !6
  %28 = icmp sgt i32 %27, 1
  br i1 %28, label %29, label %31, !prof !5

29:                                               ; preds = %26
  %30 = add nsw i32 %27, -1
  store i32 %30, ptr %3, align 4, !tbaa !6
  br label %lean_dec.exit17

31:                                               ; preds = %26
  %.not.i19 = icmp eq i32 %27, 0
  br i1 %.not.i19, label %lean_dec.exit17, label %32

32:                                               ; preds = %31
  tail call void @lean_dec_ref_cold(ptr noundef nonnull %3) #6
  br label %lean_dec.exit17

lean_dec.exit17:                                  ; preds = %32, %31, %29, %lean_dec.exit18
  %33 = ptrtoint ptr %1 to i64
  %34 = and i64 %33, 1
  %.not24 = icmp eq i64 %34, 0
  br i1 %.not24, label %35, label %lean_dec.exit

35:                                               ; preds = %lean_dec.exit17
  %36 = load i32, ptr %1, align 4, !tbaa !6
  %37 = icmp sgt i32 %36, 1
  br i1 %37, label %38, label %40, !prof !5

38:                                               ; preds = %35
  %39 = add nsw i32 %36, -1
  store i32 %39, ptr %1, align 4, !tbaa !6
  br label %lean_dec.exit

40:                                               ; preds = %35
  %.not.i21 = icmp eq i32 %36, 0
  br i1 %.not.i21, label %lean_dec.exit, label %41

41:                                               ; preds = %40
  tail call void @lean_dec_ref_cold(ptr noundef nonnull %1) #6
  br label %lean_dec.exit

lean_dec.exit:                                    ; preds = %41, %40, %38, %lean_dec.exit17
  ret ptr %23
}